; Function Attrs: nounwind uwtable
define i32 @lv_image_decoder_get_area(ptr noundef %0, ptr noundef %1, ptr noundef %2) local_unnamed_addr #0 {
  %4 = load ptr, ptr %0, align 8, !tbaa !66
  %5 = getelementptr inbounds nuw i8, ptr %4, i64 16
  %6 = load ptr, ptr %5, align 8, !tbaa !71
  %.not = icmp eq ptr %6, null
  br i1 %.not, label %9, label %7

7:                                                ; preds = %3
  %8 = tail call i32 %6(ptr noundef nonnull %4, ptr noundef nonnull %0, ptr noundef %1, ptr noundef %2) #6
  br label %9

9:                                                ; preds = %7, %3
  %.0 = phi i32 [ %8, %7 ], [ 0, %3 ]
  ret i32 %.0
}